target datalayout = "e-m:e-p270:32:32-p271:32:32-p272:64:64-i64:64-i128:128-f80:128-n8:16:32:64-S128"
target triple = "x86_64-pc-linux-gnu"

%struct.RClass_and_rb_classext_t = type { %struct.RClass, %struct.rb_classext_struct }
%struct.RClass = type { %struct.RBasic, i64, ptr }
%struct.RBasic = type { i64, i64 }
%struct.rb_classext_struct = type { ptr, ptr, ptr, ptr, ptr, i64, ptr, ptr, ptr, ptr, i64, i64, %union.anon, i64, i32, i8, i8, i64 }
%union.anon = type { %struct.anon }
%struct.anon = type { ptr }
%struct.rb_subclass_entry = type { i64, ptr, ptr }

; Function Attrs: nounwind sspstrong uwtable
define hidden void @rb_class_foreach_subclass(i64 noundef %0, ptr noundef %1, i64 noundef %2) #0 {
  %4 = alloca i64, align 8
  %5 = alloca ptr, align 8
  %6 = alloca i64, align 8
  %7 = alloca ptr, align 8
  %8 = alloca i64, align 8
  store i64 %0, ptr %4, align 8, !tbaa !7
  store ptr %1, ptr %5, align 8, !tbaa !29
  store i64 %2, ptr %6, align 8, !tbaa !7
  call void @llvm.lifetime.start.p0(i64 8, ptr %7) #23
  %9 = load i64, ptr %4, align 8, !tbaa !7
  %10 = inttoptr i64 %9 to ptr
  %11 = getelementptr inbounds nuw %struct.RClass_and_rb_classext_t, ptr %10, i32 0, i32 1
  %12 = getelementptr inbounds nuw %struct.rb_classext_struct, ptr %11, i32 0, i32 7
  %13 = load ptr, ptr %12, align 8, !tbaa !25
  store ptr %13, ptr %7, align 8, !tbaa !11
  %14 = load ptr, ptr %7, align 8, !tbaa !11
  %15 = icmp ne ptr %14, null
  br i1 %15, label %16, label %20

16:                                               ; preds = %3
  %17 = load ptr, ptr %7, align 8, !tbaa !11
  %18 = getelementptr inbounds nuw %struct.rb_subclass_entry, ptr %17, i32 0, i32 1
  %19 = load ptr, ptr %18, align 8, !tbaa !26
  store ptr %19, ptr %7, align 8, !tbaa !11
  br label %20

20:                                               ; preds = %16, %3
  br label %21

21:                                               ; preds = %24, %20
  %22 = load ptr, ptr %7, align 8, !tbaa !11
  %23 = icmp ne ptr %22, null
  br i1 %23, label %24, label %34

24:                                               ; preds = %21
  call void @llvm.lifetime.start.p0(i64 8, ptr %8) #23
  %25 = load ptr, ptr %7, align 8, !tbaa !11
  %26 = getelementptr inbounds nuw %struct.rb_subclass_entry, ptr %25, i32 0, i32 0
  %27 = load i64, ptr %26, align 8, !tbaa !23
  store i64 %27, ptr %8, align 8, !tbaa !7
  %28 = load ptr, ptr %7, align 8, !tbaa !11
  %29 = getelementptr inbounds nuw %struct.rb_subclass_entry, ptr %28, i32 0, i32 1
  %30 = load ptr, ptr %29, align 8, !tbaa !26
  store ptr %30, ptr %7, align 8, !tbaa !11
  %31 = load ptr, ptr %5, align 8, !tbaa !29
  %32 = load i64, ptr %8, align 8, !tbaa !7
  %33 = load i64, ptr %6, align 8, !tbaa !7
  call void %31(i64 noundef %32, i64 noundef %33)
  call void @llvm.lifetime.end.p0(i64 8, ptr %8) #23
  br label %21, !llvm.loop !30

34:                                               ; preds = %21
  call void @llvm.lifetime.end.p0(i64 8, ptr %7) #23
  ret void
}

; Function Attrs: nounwind sspstrong uwtable
define hidden void @rb_class_detach_subclasses(i64 noundef %0) #0 {
  %2 = alloca i64, align 8
  store i64 %0, ptr %2, align 8, !tbaa !7
  %3 = load i64, ptr %2, align 8, !tbaa !7
  call void @rb_class_foreach_subclass(i64 noundef %3, ptr noundef @class_detach_subclasses, i64 noundef 4)
  ret void
}